; ModuleID = '23/1027.c'
source_filename = "23/1027.c"
target datalayout = "e-m:e-p270:32:32-p271:32:32-p272:64:64-i64:64-f80:128-n8:16:32:64-S128"
target triple = "x86_64-pc-linux-gnu"

@.str = private unnamed_addr constant [3 x i8] c"%c\00", align 1
@.str.1 = private unnamed_addr constant [2 x i8] c" \00", align 1

; Function Attrs: noinline nounwind uwtable
define dso_local void @main() #0 {
  %1 = alloca i32, align 4
  %2 = alloca i32, align 4
  %3 = alloca [100 x i8], align 16
  %4 = alloca i8*, align 8
  %5 = getelementptr inbounds [100 x i8], [100 x i8]* %3, i64 0, i64 0
  %6 = call i32 (i8*, ...) bitcast (i32 (...)* @gets to i32 (i8*, ...)*)(i8* %5)
  %7 = getelementptr inbounds [100 x i8], [100 x i8]* %3, i64 0, i64 0
  %8 = call i64 @strlen(i8* %7) #3
  %9 = trunc i64 %8 to i32
  store i32 %9, i32* %2, align 4
  %10 = getelementptr inbounds [100 x i8], [100 x i8]* %3, i64 0, i64 0
  store i8* %10, i8** %4, align 8
  %11 = getelementptr inbounds [100 x i8], [100 x i8]* %3, i64 0, i64 0
  %12 = load i32, i32* %2, align 4
  %13 = sext i32 %12 to i64
  %14 = getelementptr inbounds i8, i8* %11, i64 %13
  %15 = getelementptr inbounds i8, i8* %14, i64 -1
  store i8* %15, i8** %4, align 8
  %16 = load i32, i32* %2, align 4
  %17 = sub nsw i32 %16, 1
  store i32 %17, i32* %1, align 4
  br label %18

18:                                               ; preds = %89, %0
  %19 = load i8*, i8** %4, align 8
  %20 = getelementptr inbounds [100 x i8], [100 x i8]* %3, i64 0, i64 0
  %21 = icmp uge i8* %19, %20
  br i1 %21, label %22, label %94

22:                                               ; preds = %18
  %23 = load i8*, i8** %4, align 8
  %24 = load i8, i8* %23, align 1
  %25 = sext i8 %24 to i32
  %26 = icmp eq i32 %25, 32
  br i1 %26, label %27, label %59

27:                                               ; preds = %22
  %28 = getelementptr inbounds [100 x i8], [100 x i8]* %3, i64 0, i64 0
  %29 = load i32, i32* %1, align 4
  %30 = sext i32 %29 to i64
  %31 = getelementptr inbounds i8, i8* %28, i64 %30
  %32 = getelementptr inbounds i8, i8* %31, i64 1
  store i8* %32, i8** %4, align 8
  br label %33

33:                                               ; preds = %50, %27
  %34 = load i8*, i8** %4, align 8
  %35 = load i8, i8* %34, align 1
  %36 = sext i8 %35 to i32
  %37 = icmp ne i32 %36, 32
  br i1 %37, label %38, label %43

38:                                               ; preds = %33
  %39 = load i8*, i8** %4, align 8
  %40 = load i8, i8* %39, align 1
  %41 = sext i8 %40 to i32
  %42 = icmp ne i32 %41, 0
  br label %43

43:                                               ; preds = %38, %33
  %44 = phi i1 [ false, %33 ], [ %42, %38 ]
  br i1 %44, label %45, label %53

45:                                               ; preds = %43
  %46 = load i8*, i8** %4, align 8
  %47 = load i8, i8* %46, align 1
  %48 = sext i8 %47 to i32
  %49 = call i32 (i8*, ...) @printf(i8* getelementptr inbounds ([3 x i8], [3 x i8]* @.str, i64 0, i64 0), i32 %48)
  br label %50

50:                                               ; preds = %45
  %51 = load i8*, i8** %4, align 8
  %52 = getelementptr inbounds i8, i8* %51, i32 1
  store i8* %52, i8** %4, align 8
  br label %33

53:                                               ; preds = %43
  %54 = call i32 (i8*, ...) @printf(i8* getelementptr inbounds ([2 x i8], [2 x i8]* @.str.1, i64 0, i64 0))
  %55 = getelementptr inbounds [100 x i8], [100 x i8]* %3, i64 0, i64 0
  %56 = load i32, i32* %1, align 4
  %57 = sext i32 %56 to i64
  %58 = getelementptr inbounds i8, i8* %55, i64 %57
  store i8* %58, i8** %4, align 8
  br label %59

59:                                               ; preds = %53, %22
  %60 = load i32, i32* %1, align 4
  %61 = icmp eq i32 %60, 0
  br i1 %61, label %62, label %88

62:                                               ; preds = %59
  %63 = getelementptr inbounds [100 x i8], [100 x i8]* %3, i64 0, i64 0
  %64 = load i32, i32* %1, align 4
  %65 = sext i32 %64 to i64
  %66 = getelementptr inbounds i8, i8* %63, i64 %65
  store i8* %66, i8** %4, align 8
  br label %67

67:                                               ; preds = %84, %62
  %68 = load i8*, i8** %4, align 8
  %69 = load i8, i8* %68, align 1
  %70 = sext i8 %69 to i32
  %71 = icmp ne i32 %70, 32
  br i1 %71, label %72, label %77

72:                                               ; preds = %67
  %73 = load i8*, i8** %4, align 8
  %74 = load i8, i8* %73, align 1
  %75 = sext i8 %74 to i32
  %76 = icmp ne i32 %75, 0
  br label %77

77:                                               ; preds = %72, %67
  %78 = phi i1 [ false, %67 ], [ %76, %72 ]
  br i1 %78, label %79, label %87

79:                                               ; preds = %77
  %80 = load i8*, i8** %4, align 8
  %81 = load i8, i8* %80, align 1
  %82 = sext i8 %81 to i32
  %83 = call i32 (i8*, ...) @printf(i8* getelementptr inbounds ([3 x i8], [3 x i8]* @.str, i64 0, i64 0), i32 %82)
  br label %84

84:                                               ; preds = %79
  %85 = load i8*, i8** %4, align 8
  %86 = getelementptr inbounds i8, i8* %85, i32 1
  store i8* %86, i8** %4, align 8
  br label %67

87:                                               ; preds = %77
  br label %88

88:                                               ; preds = %87, %59
  br label %89

89:                                               ; preds = %88
  %90 = load i8*, i8** %4, align 8
  %91 = getelementptr inbounds i8, i8* %90, i32 -1
  store i8* %91, i8** %4, align 8
  %92 = load i32, i32* %1, align 4
  %93 = add nsw i32 %92, -1
  store i32 %93, i32* %1, align 4
  br label %18

94:                                               ; preds = %18
  ret void
}

declare dso_local i32 @gets(...) #1

; Function Attrs: nounwind readonly
declare dso_local i64 @strlen(i8*) #2

declare dso_local i32 @printf(i8*, ...) #1


!llvm.module.flags = !{!0}
!llvm.ident = !{!1}

!0 = !{i32 1, !"wchar_size", i32 4}
!1 = !{!"clang version 10.0.0-4ubuntu1 "}
